(dp1
S'output'
p2
S"<type 'exceptions.NameError'> name 'subject_list' is not defined"
p3
sS'layer'
p4
S'/Users/rocky/projects/web2py/applications/fmgqcx/views/user/add.html'
p5
sS'code'
p6
S'response.write(\'<!DOCTYPE html>\\n<html xmlns="http://www.w3.org/1999/xhtml" xml:lang="en" lang="en">\\n\\n    <head>\\n        <meta http-equiv="content-type" content="text/html; charset=utf-8" />\\n        <meta http-equiv="P3P" content="CP=\\\\"IDC DSP COR CURa ADMa OUR IND PHY ONL COM STA\\\\"" />\\n        <meta name="viewport" content="width=device-width, initial-scale=1.0">\\n        <title>\', escape=False)\nresponse.write(response.title or URL())\nresponse.write(\'</title>\\n        \', escape=False)\nresponse.files.append(URL(\'static\',\'css/bootstrap.min.css\'))\nresponse.files.append(URL(\'static\',\'css/bootstrap_essentials.css\'))\nresponse.files.append(URL(\'static\',\'css/bootstrap-responsive.min.css\'))\nresponse.write(\'\\n        \', escape=False)\nresponse.write(\'<script type="text/javascript"><!--\\n    // These variables are used by the web2py_ajax_init function in web2py_ajax.js (which is loaded below).\\n    var w2p_ajax_confirm_message = "\', escape=False)\nresponse.write(T(\'Are you sure you want to delete this object?\'))\nresponse.write(\'";\\n    var w2p_ajax_date_format = "\', escape=False)\nresponse.write(T(\'%Y-%m-%d\'))\nresponse.write(\'";\\n    var w2p_ajax_datetime_format = "\', escape=False)\nresponse.write(T(\'%Y-%m-%d %H:%M:%S\'))\nresponse.write(\'";\\n    var w2p_ajax_disable_with_message = "\', escape=False)\nresponse.write(T(\'Working...\'))\nresponse.write(\'";\\n    var ajax_error_500 = \\\'\', escape=False)\nresponse.write(T.M(\'An error occured, please [[reload %s]] the page\') % URL(args=request.args, vars=request.get_vars))\nresponse.write("\'\\n    //--></script>\\n", escape=False)\nresponse.files.insert(0,URL(\'static\',\'js/jquery.js\'))\nresponse.files.insert(1,URL(\'static\',\'css/calendar.css\'))\nresponse.files.insert(2,URL(\'static\',\'js/calendar.js\'))\nresponse.files.insert(3,URL(\'static\',\'js/web2py.js\'))\nresponse.include_meta()\nresponse.include_files()\nresponse.write(\'\\n\', escape=False)\nresponse.write(\'\\n\\n        <!-- CSS goes in the document HEAD or added to your external stylesheet -->\\n        <style type="text/css">\\n        table.altrowstable {\\n            font-family: verdana,arial,sans-serif;\\n            font-size:11px;\\n            color:#333333;\\n            border-width: 1px;\\n            border-color: #a9c6c9;\\n            border-collapse: collapse;\\n            width: 100%;\\n            text-align: center;\\n        }\\n        table.altrowstable th {\\n            border-width: 1px;\\n            padding: 8px;\\n            border-style: solid;\\n            border-color: #a9c6c9;\\n        }\\n        table.altrowstable td {\\n            border-width: 1px;\\n            padding: 8px;\\n            border-style: solid;\\n            border-color: #a9c6c9;\\n        }\\n        .oddrowcolor{\\n            background-color:#d4e3e5;\\n        }\\n        .evenrowcolor{\\n            background-color:#c3dde0;\\n        }\\n        .toolbar{\\n            padding: 5px 0;\\n            margin-bottom: 5px;\\n            border-bottom: solid 1px lightgray;\\n        }\\n        </style>\\n    </head>\\n\\n    <body class="\', escape=False)\nresponse.write(T(\'direction: ltr\') == \'direction: rtl\' and \'RTLbody\' or \'\')\nresponse.write(\' \', escape=False)\nresponse.write(\'home\', escape=False)\nresponse.write(\'">\\n\\n        <!-- NAVBAR\\n        ============== -->\\n        <div id="header" class="navbar navbar-inverse navbar-fixed-top">\\n            <div class="navbar-inner">\\n                <div class="container-fluid">\\n                    <button type="button" class="btn btn-navbar" data-toggle="collapse" data-target=".nav-collapse">\\n                        <span class="icon-bar"></span>\\n                        <span class="icon-bar"></span>\\n                        <span class="icon-bar"></span>\\n                    </button>\\n                    <div id="start" class="brand_wrapper">\\n                        <a href="javascirpt:;" class="button brand" ><span>\', escape=False)\nresponse.write(response.title)\nresponse.write(\'</span></a>\\n                    </div>\\n                    <div class="nav-collapse">\\n                        \', escape=False)\nif response.menu is not None:\n    response.write(\'\\n                        <ul id="menu" class="nav pull-right">\\n                            \', escape=False)\n    for _name,_active,_link in response.menu:\n        response.write(\'\\n                            <li>\', escape=False)\n        response.write(A(SPAN(_name), _href=_link, _class=_active and \'button select\' or \'button\'))\n        response.write(\'</li>\\n                            \', escape=False)\n        pass\n    response.write(\'\\n                        </ul>\\n                        \', escape=False)\n    pass\nresponse.write(\'\\n                    </div><!--/.nav-collapse -->\\n                </div><!-- /container-fluid -->\\n            </div><!-- /navbar-inner -->\\n        </div><!-- /#header -->\\n\\n        <!-- MAIN\\n        =========== -->\\n            <div id="\', escape=False)\nresponse.write(globals().get(\'main_id\', \'main\'))\nresponse.write(\'" class="container-fluid">\\n                <div id="main_inner" class="row-fluid">\\n                    <div class="span12">\\n                        <div class="w2p_flash alert">\', escape=False)\nresponse.write(response.flash or \'\')\nresponse.write(\'</div>\\n                        \', escape=False)\nresponse.write(\'\\n<h3>\\xe6\\xb7\\xbb\\xe5\\x8a\\xa0\\xe7\\x94\\xa8\\xe6\\x88\\xb7</h3>\\n<div class="container-fluid">\\n    <div class="student-info ">\\n        <div class="infoDetail">\\n            <p class="title">\\xe5\\xbd\\x95\\xe5\\x85\\xa5\\xe8\\xaf\\xbe\\xe7\\xa8\\x8b\\xe5\\x8d\\x95\\xe5\\x85\\x83</p>\\n        </div>\\n        \', escape=False)\nresponse.write(form.custom.begin)\nresponse.write(\'\\n        \', escape=False)\nform.custom.submit[\'_value\']=\'\xe7\xa1\xae\xe5\xae\x9a\'\nresponse.write(\'\\n        \', escape=False)\nform.custom.submit[\'_class\']=\'btn  btn-primary pull-right\'\nresponse.write(\'\\n        \', escape=False)\nimport time\nresponse.write(\'\\n        <table class="table-no-border" style="width:100%">\\n            <tr>\\n                <td>\\n                    <label class="control-label">\\xe5\\x8d\\x95\\xe5\\x85\\x83\\xe5\\x8f\\xb7</label>\\n                </td>\\n            </tr>\\n            <tr>\\n                <td>\\n                    <input class="form-control" type="text"  value="" name="unit_no">\\n                    <span class="errmsg" id="errmsg_no">\\xe4\\xb8\\x8d\\xe8\\x83\\xbd\\xe4\\xb8\\xba\\xe7\\xa9\\xba</span>\\n                </td>\\n            </tr>\\n            <tr>\\n                <td>\\n                    <label class="control-label">\\xe5\\x8d\\x95\\xe5\\x85\\x83\\xe5\\x90\\x8d</label>\\n                </td>\\n            </tr>\\n            <tr>\\n                <td>\\n                    <input type="text" name="unit_name" class="form-control" value="" >\\n                    <span class="errmsg" id="errmsg_name">\\xe4\\xb8\\x8d\\xe8\\x83\\xbd\\xe4\\xb8\\xba\\xe7\\xa9\\xba</span>\\n                </td>\\n            </tr>\\n            <tr>\\n                <td>\\n                    <label style="margin-bottom:-8px;">\\xe5\\xb9\\xb4\\xe7\\xba\\xa7</label>\\n                </td>\\n            </tr>\\n            <tr>\\n                <td>\\n                    <input type="text" class="form-control" name="grade" />\\n                </td>\\n            </tr>\\n            <tr>\\n                <td>\\n                    <label style="margin-bottom:-8px;">\\xe5\\x88\\x86\\xe5\\x86\\x8c</label>\\n                </td>\\n            </tr>\\n            <tr>\\n                <td>\\n                    <select class="form-control" name="book">\\n                        <option></option>\\n                        <option value="\\xe4\\xb8\\x8a\\xe5\\x86\\x8c">\\xe4\\xb8\\x8a\\xe5\\x86\\x8c</option>\\n                        <option value="\\xe4\\xb8\\x8b\\xe5\\x86\\x8c">\\xe4\\xb8\\x8b\\xe5\\x86\\x8c</option>\\n                    </select>\\n                </td>\\n            </tr>\\n            <tr>\\n                <td>\\n                    <label style="margin-bottom:-8px;">\\xe7\\xa7\\x91\\xe7\\x9b\\xae</label>\\n                </td>\\n            </tr>\\n            <tr>\\n                <td>\\n                    <select class="form-control" name="subject_id">\\n                        \', escape=False)\nfor subject in subject_list:\n    response.write(\'\\n                        <option value="\', escape=False)\n    response.write(subject.id)\n    response.write(\'">\', escape=False)\n    response.write(subject.name)\n    response.write(\'</option>\\n                        \', escape=False)\n    pass\nresponse.write(\'\\n                    </select>\\n                </td>\\n            </tr>\\n            <tr>\\n                <td>\\n                    <label style="margin-bottom:-8px;">\\xe6\\x95\\x99\\xe6\\x9d\\x90\\xe7\\x89\\x88\\xe6\\x9c\\xac</label>\\n                </td>\\n            </tr>\\n            <tr>\\n                <td>\\n                    <input type="text" name="edition" class="form-control" />\\n                </td>\\n            </tr>\\n        </table>\\n        <a href="javascript:window.history.go(-1)" class="btn  btn-danger pull-right" onClick="">\\xe5\\x8f\\x96\\xe6\\xb6\\x88</a>\\n        <a href="#" class="btn  btn-primary pull-right" id="sure">\\xe7\\xa1\\xae\\xe5\\xae\\x9a</a>\\n        \', escape=False)\nresponse.write(form.custom.end)\nresponse.write(\'\\n    </div>\\n</div>\\n\', escape=False)\nresponse.write(\'\\n                    </div><!-- /main span12 -->\\n                </div><!-- /main row-fluid -->\\n            </div><!-- /#main -->\\n\\n        <!-- FOOTER\\n        ============== -->\\n        \', escape=False)\nresponse.write(\'\\n        <footer id="footer" class="fixed">\\n            <p><span>\', escape=False)\nresponse.write(T(\'Powered by\'))\nresponse.write(\' \', escape=False)\nresponse.write(A(\'web2py\', _href=\'http://www.web2py.com\'))\nresponse.write(\'&trade; &copy;2007-\', escape=False)\nresponse.write(request.now.year)\nresponse.write(\'</span>\\n            </p>\\n        </footer><!-- /#footer -->\\n        \', escape=False)\nresponse.write(\'\\n\\n        <!-- BS JAVASCRIPT\\n        ====================== -->\\n        <script src="\', escape=False)\nresponse.write(URL(\'static\',\'js/bootstrap.min.js\'))\nresponse.write(\'"></script>\\n        <script src="\', escape=False)\nresponse.write(URL(\'static\',\'lhgdialog/lhgdialog.min.js\'))\nresponse.write(\'"\\n        <script type="text/javascript">\\n            jQuery(document).ready(function(){\\n                jQuery("[rel=tooltip]").tooltip();\\n                jQuery(":input").attr("autocomplete","off");\\n            });\\n            $.fn.serializeObject = function()\\n            {\\n               var o = {};\\n               var a = this.serializeArray();\\n               $.each(a, function() {\\n                   if (o[this.name]) {\\n                       if (!o[this.name].push) {\\n                           o[this.name] = [o[this.name]];\\n                       }\\n                       o[this.name].push(this.value || \\\'\\\');\\n                   } else {\\n                       o[this.name] = this.value || \\\'\\\';\\n                   }\\n               });\\n               return o;\\n            };\\n        </script>\\n        <script type="text/javascript">\\n         jQuery(document).ready(function(){\\n            var table = jQuery(\\\'table.altrowstable\\\');\\n            var rows = table.find("tr");\\n\\n            for(i = 0; i < rows.length; i++){\\n                if(i % 2 == 0){\\n                    rows.eq(i).addClass("evenrowcolor");\\n                }else{\\n                    rows.eq(i).addClass("oddrowcolor");\\n                }\\n            }\\n         });\\n        </script>\\n\\n        <script>\\n            // ====================\\n            // upload input mask\\n            // ====================\\n\\n            function FileSelectHandler(e) {\\n                e.stopPropagation();\\n                var filename = e.target.value.split(/\\\\\\\\|\\\\//).pop();\\n                jQuery(\\\'#fileselect>span\\\').removeClass(\\\'txtPlaceholder\\\').text(filename)\\n            }\\n\\n            jQuery(document).ready(function(){\\n                var iupload = jQuery(\\\'#appupdate_file\\\');\\n                var ow = 300, oh = 20;\\n                var iplaceholder = jQuery(\\\'<span class="txtPlaceholder">\', escape=False)\nresponse.write(T("no package selected"))\nresponse.write(\'</span>\\\'),\\n                    iuploadbtn = jQuery(\\\'<button class="btn btn-inverse btn-mini uploadbtn"><i class="icon-white icon-circle-arrow-up"></i></button>\\\');\\n                iupload\\n                    .addClass(\\\'masked\\\')\\n                    .wrap(\\\'<div id="fileselect" style="width:\\\'+ow+\\\'px;height:\\\'+oh+\\\'px"></div>\\\')\\n                    .on(\\\'change\\\', function(event){FileSelectHandler(event)});\\n                jQuery(\\\'#fileselect\\\').append(iplaceholder, iuploadbtn);\\n            });\\n        </script>\\n    </body>\\n</html>\\n\', escape=False)'
p7
sS'snapshot'
p8
(dp9
S'exception'
p10
(dp11
S'__hash__'
p12
S"<method-wrapper '__hash__' of exceptions.NameError object>"
p13
sS'__setattr__'
p14
S"<method-wrapper '__setattr__' of exceptions.NameError object>"
p15
sS'__reduce_ex__'
p16
S'<built-in method __reduce_ex__ of exceptions.NameError object>'
p17
sS'__getslice__'
p18
S"<method-wrapper '__getslice__' of exceptions.NameError object>"
p19
sS'__getitem__'
p20
S"<method-wrapper '__getitem__' of exceptions.NameError object>"
p21
sS'__setstate__'
p22
S'<built-in method __setstate__ of exceptions.NameError object>'
p23
sS'args'
p24
S'("name \'subject_list\' is not defined",)'
p25
sS'__reduce__'
p26
S'<built-in method __reduce__ of exceptions.NameError object>'
p27
sS'__str__'
p28
S"<method-wrapper '__str__' of exceptions.NameError object>"
p29
sS'__format__'
p30
S'<built-in method __format__ of exceptions.NameError object>'
p31
sS'__getattribute__'
p32
S"<method-wrapper '__getattribute__' of exceptions.NameError object>"
p33
sS'__class__'
p34
S"<type 'exceptions.NameError'>"
p35
sS'__unicode__'
p36
S'<built-in method __unicode__ of exceptions.NameError object>'
p37
sS'__delattr__'
p38
S"<method-wrapper '__delattr__' of exceptions.NameError object>"
p39
sS'__subclasshook__'
p40
S'<built-in method __subclasshook__ of type object>'
p41
sS'__repr__'
p42
S"<method-wrapper '__repr__' of exceptions.NameError object>"
p43
sS'__dict__'
p44
S'{}'
p45
sS'__sizeof__'
p46
S'<built-in method __sizeof__ of exceptions.NameError object>'
p47
sS'__doc__'
p48
S"'Name not found globally.'"
p49
sS'__init__'
p50
S"<method-wrapper '__init__' of exceptions.NameError object>"
p51
sS'__new__'
p52
S'<built-in method __new__ of type object>'
p53
ssS'evalue'
p54
S"name 'subject_list' is not defined"
p55
sS'request'
p56
cgluon.html
XML_unpickle
p57
(S's\x81\x86\x00\x00<div><table><tr><td style="font-weight:bold;vertical-align:top;">ajax</td><td style="vertical-align:top;">:</td><td><div>False</div></td></tr><tr><td style="font-weight:bold;vertical-align:top;">application</td><td style="vertical-align:top;">:</td><td><div>fmgqcx</div></td></tr><tr><td style="font-weight:bold;vertical-align:top;">args</td><td style="vertical-align:top;">:</td><td><div><table></table></div></td></tr><tr><td style="font-weight:bold;vertical-align:top;">cid</td><td style="vertical-align:top;">:</td><td><div>None</div></td></tr><tr><td style="font-weight:bold;vertical-align:top;">client</td><td style="vertical-align:top;">:</td><td><div>127.0.0.1</div></td></tr><tr><td style="font-weight:bold;vertical-align:top;">controller</td><td style="vertical-align:top;">:</td><td><div>user</div></td></tr><tr><td style="font-weight:bold;vertical-align:top;">cookies</td><td style="vertical-align:top;">:</td><td><div><table><tr><td style="font-weight:bold;vertical-align:top;">adminLanguage</td><td style="vertical-align:top;">:</td><td><div>en<table><tr><td style="font-weight:bold;vertical-align:top;">comment</td><td style="vertical-align:top;">:</td><td><div></div></td></tr><tr><td style="font-weight:bold;vertical-align:top;">domain</td><td style="vertical-align:top;">:</td><td><div></div></td></tr><tr><td style="font-weight:bold;vertical-align:top;">expires</td><td style="vertical-align:top;">:</td><td><div></div></td></tr><tr><td style="font-weight:bold;vertical-align:top;">httponly</td><td style="vertical-align:top;">:</td><td><div></div></td></tr><tr><td style="font-weight:bold;vertical-align:top;">max-age</td><td style="vertical-align:top;">:</td><td><div></div></td></tr><tr><td style="font-weight:bold;vertical-align:top;">path</td><td style="vertical-align:top;">:</td><td><div></div></td></tr><tr><td style="font-weight:bold;vertical-align:top;">secure</td><td style="vertical-align:top;">:</td><td><div></div></td></tr><tr><td style="font-weight:bold;vertical-align:top;">version</td><td style="vertical-align:top;">:</td><td><div></div></td></tr></table></div></td></tr><tr><td style="font-weight:bold;vertical-align:top;">jiathis_rdc</td><td style="vertical-align:top;">:</td><td><div>%7B%22http%3A//127.0.0.1%3A8000/class_page/show_log/tfxx/20103%3Flog_id%3D17%22%3A681177321%2C%22http%3A//127.0.0.1%3A8000/class_page/show_log/tfxx/20103%3Flog_id%3D12%22%3A683059420%2C%22http%3A//127.0.0.1%3A8000/class_page/show_log/tfxx/20103%3Flog_id%3D19%22%3A0%7C1461117404583%2C%22http%3A//127.0.0.1%3A8000/notice/show/1242%22%3A%220%7C1461209656257%22%7D<table><tr><td style="font-weight:bold;vertical-align:top;">comment</td><td style="vertical-align:top;">:</td><td><div></div></td></tr><tr><td style="font-weight:bold;vertical-align:top;">domain</td><td style="vertical-align:top;">:</td><td><div></div></td></tr><tr><td style="font-weight:bold;vertical-align:top;">expires</td><td style="vertical-align:top;">:</td><td><div></div></td></tr><tr><td style="font-weight:bold;vertical-align:top;">httponly</td><td style="vertical-align:top;">:</td><td><div></div></td></tr><tr><td style="font-weight:bold;vertical-align:top;">max-age</td><td style="vertical-align:top;">:</td><td><div></div></td></tr><tr><td style="font-weight:bold;vertical-align:top;">path</td><td style="vertical-align:top;">:</td><td><div></div></td></tr><tr><td style="font-weight:bold;vertical-align:top;">secure</td><td style="vertical-align:top;">:</td><td><div></div></td></tr><tr><td style="font-weight:bold;vertical-align:top;">version</td><td style="vertical-align:top;">:</td><td><div></div></td></tr></table></div></td></tr><tr><td style="font-weight:bold;vertical-align:top;">page_size</td><td style="vertical-align:top;">:</td><td><div>10<table><tr><td style="font-weight:bold;vertical-align:top;">comment</td><td style="vertical-align:top;">:</td><td><div></div></td></tr><tr><td style="font-weight:bold;vertical-align:top;">domain</td><td style="vertical-align:top;">:</td><td><div></div></td></tr><tr><td style="font-weight:bold;vertical-align:top;">expires</td><td style="vertical-align:top;">:</td><td><div></div></td></tr><tr><td style="font-weight:bold;vertical-align:top;">httponly</td><td style="vertical-align:top;">:</td><td><div></div></td></tr><tr><td style="font-weight:bold;vertical-align:top;">max-age</td><td style="vertical-align:top;">:</td><td><div></div></td></tr><tr><td style="font-weight:bold;vertical-align:top;">path</td><td style="vertical-align:top;">:</td><td><div></div></td></tr><tr><td style="font-weight:bold;vertical-align:top;">secure</td><td style="vertical-align:top;">:</td><td><div></div></td></tr><tr><td style="font-weight:bold;vertical-align:top;">version</td><td style="vertical-align:top;">:</td><td><div></div></td></tr></table></div></td></tr><tr><td style="font-weight:bold;vertical-align:top;">school_abbrev</td><td style="vertical-align:top;">:</td><td><div>syxx<table><tr><td style="font-weight:bold;vertical-align:top;">comment</td><td style="vertical-align:top;">:</td><td><div></div></td></tr><tr><td style="font-weight:bold;vertical-align:top;">domain</td><td style="vertical-align:top;">:</td><td><div></div></td></tr><tr><td style="font-weight:bold;vertical-align:top;">expires</td><td style="vertical-align:top;">:</td><td><div></div></td></tr><tr><td style="font-weight:bold;vertical-align:top;">httponly</td><td style="vertical-align:top;">:</td><td><div></div></td></tr><tr><td style="font-weight:bold;vertical-align:top;">max-age</td><td style="vertical-align:top;">:</td><td><div></div></td></tr><tr><td style="font-weight:bold;vertical-align:top;">path</td><td style="vertical-align:top;">:</td><td><div></div></td></tr><tr><td style="font-weight:bold;vertical-align:top;">secure</td><td style="vertical-align:top;">:</td><td><div></div></td></tr><tr><td style="font-weight:bold;vertical-align:top;">version</td><td style="vertical-align:top;">:</td><td><div></div></td></tr></table></div></td></tr><tr><td style="font-weight:bold;vertical-align:top;">session_id_admin</td><td style="vertical-align:top;">:</td><td><div>127.0.0.1-49c35235-50b1-440d-bf99-57506bae48c0<table><tr><td style="font-weight:bold;vertical-align:top;">comment</td><td style="vertical-align:top;">:</td><td><div></div></td></tr><tr><td style="font-weight:bold;vertical-align:top;">domain</td><td style="vertical-align:top;">:</td><td><div></div></td></tr><tr><td style="font-weight:bold;vertical-align:top;">expires</td><td style="vertical-align:top;">:</td><td><div></div></td></tr><tr><td style="font-weight:bold;vertical-align:top;">httponly</td><td style="vertical-align:top;">:</td><td><div></div></td></tr><tr><td style="font-weight:bold;vertical-align:top;">max-age</td><td style="vertical-align:top;">:</td><td><div></div></td></tr><tr><td style="font-weight:bold;vertical-align:top;">path</td><td style="vertical-align:top;">:</td><td><div></div></td></tr><tr><td style="font-weight:bold;vertical-align:top;">secure</td><td style="vertical-align:top;">:</td><td><div></div></td></tr><tr><td style="font-weight:bold;vertical-align:top;">version</td><td style="vertical-align:top;">:</td><td><div></div></td></tr></table></div></td></tr><tr><td style="font-weight:bold;vertical-align:top;">session_id_examples</td><td style="vertical-align:top;">:</td><td><div>True<table><tr><td style="font-weight:bold;vertical-align:top;">comment</td><td style="vertical-align:top;">:</td><td><div></div></td></tr><tr><td style="font-weight:bold;vertical-align:top;">domain</td><td style="vertical-align:top;">:</td><td><div></div></td></tr><tr><td style="font-weight:bold;vertical-align:top;">expires</td><td style="vertical-align:top;">:</td><td><div></div></td></tr><tr><td style="font-weight:bold;vertical-align:top;">httponly</td><td style="vertical-align:top;">:</td><td><div></div></td></tr><tr><td style="font-weight:bold;vertical-align:top;">max-age</td><td style="vertical-align:top;">:</td><td><div></div></td></tr><tr><td style="font-weight:bold;vertical-align:top;">path</td><td style="vertical-align:top;">:</td><td><div></div></td></tr><tr><td style="font-weight:bold;vertical-align:top;">secure</td><td style="vertical-align:top;">:</td><td><div></div></td></tr><tr><td style="font-weight:bold;vertical-align:top;">version</td><td style="vertical-align:top;">:</td><td><div></div></td></tr></table></div></td></tr><tr><td style="font-weight:bold;vertical-align:top;">session_id_fmgqcx</td><td style="vertical-align:top;">:</td><td><div>127.0.0.1-90a7e422-3298-4e49-a43e-1f6399d99936<table><tr><td style="font-weight:bold;vertical-align:top;">comment</td><td style="vertical-align:top;">:</td><td><div></div></td></tr><tr><td style="font-weight:bold;vertical-align:top;">domain</td><td style="vertical-align:top;">:</td><td><div></div></td></tr><tr><td style="font-weight:bold;vertical-align:top;">expires</td><td style="vertical-align:top;">:</td><td><div></div></td></tr><tr><td style="font-weight:bold;vertical-align:top;">httponly</td><td style="vertical-align:top;">:</td><td><div></div></td></tr><tr><td style="font-weight:bold;vertical-align:top;">max-age</td><td style="vertical-align:top;">:</td><td><div></div></td></tr><tr><td style="font-weight:bold;vertical-align:top;">path</td><td style="vertical-align:top;">:</td><td><div></div></td></tr><tr><td style="font-weight:bold;vertical-align:top;">secure</td><td style="vertical-align:top;">:</td><td><div></div></td></tr><tr><td style="font-weight:bold;vertical-align:top;">version</td><td style="vertical-align:top;">:</td><td><div></div></td></tr></table></div></td></tr><tr><td style="font-weight:bold;vertical-align:top;">session_id_jwgl2</td><td style="vertical-align:top;">:</td><td><div>127.0.0.1-1b787ba6-e32e-4485-9232-e101791d146c<table><tr><td style="font-weight:bold;vertical-align:top;">comment</td><td style="vertical-align:top;">:</td><td><div></div></td></tr><tr><td style="font-weight:bold;vertical-align:top;">domain</td><td style="vertical-align:top;">:</td><td><div></div></td></tr><tr><td style="font-weight:bold;vertical-align:top;">expires</td><td style="vertical-align:top;">:</td><td><div></div></td></tr><tr><td style="font-weight:bold;vertical-align:top;">httponly</td><td style="vertical-align:top;">:</td><td><div></div></td></tr><tr><td style="font-weight:bold;vertical-align:top;">max-age</td><td style="vertical-align:top;">:</td><td><div></div></td></tr><tr><td style="font-weight:bold;vertical-align:top;">path</td><td style="vertical-align:top;">:</td><td><div></div></td></tr><tr><td style="font-weight:bold;vertical-align:top;">secure</td><td style="vertical-align:top;">:</td><td><div></div></td></tr><tr><td style="font-weight:bold;vertical-align:top;">version</td><td style="vertical-align:top;">:</td><td><div></div></td></tr></table></div></td></tr><tr><td style="font-weight:bold;vertical-align:top;">session_id_school</td><td style="vertical-align:top;">:</td><td><div>127.0.0.1-a04b6792-9c02-4fc3-898f-10fd32b29eb4<table><tr><td style="font-weight:bold;vertical-align:top;">comment</td><td style="vertical-align:top;">:</td><td><div></div></td></tr><tr><td style="font-weight:bold;vertical-align:top;">domain</td><td style="vertical-align:top;">:</td><td><div></div></td></tr><tr><td style="font-weight:bold;vertical-align:top;">expires</td><td style="vertical-align:top;">:</td><td><div></div></td></tr><tr><td style="font-weight:bold;vertical-align:top;">httponly</td><td style="vertical-align:top;">:</td><td><div></div></td></tr><tr><td style="font-weight:bold;vertical-align:top;">max-age</td><td style="vertical-align:top;">:</td><td><div></div></td></tr><tr><td style="font-weight:bold;vertical-align:top;">path</td><td style="vertical-align:top;">:</td><td><div></div></td></tr><tr><td style="font-weight:bold;vertical-align:top;">secure</td><td style="vertical-align:top;">:</td><td><div></div></td></tr><tr><td style="font-weight:bold;vertical-align:top;">version</td><td style="vertical-align:top;">:</td><td><div></div></td></tr></table></div></td></tr><tr><td style="font-weight:bold;vertical-align:top;">session_id_welcome</td><td style="vertical-align:top;">:</td><td><div>127.0.0.1-5b2e37da-9653-4cb6-beeb-1ef772bd37aa<table><tr><td style="font-weight:bold;vertical-align:top;">comment</td><td style="vertical-align:top;">:</td><td><div></div></td></tr><tr><td style="font-weight:bold;vertical-align:top;">domain</td><td style="vertical-align:top;">:</td><td><div></div></td></tr><tr><td style="font-weight:bold;vertical-align:top;">expires</td><td style="vertical-align:top;">:</td><td><div></div></td></tr><tr><td style="font-weight:bold;vertical-align:top;">httponly</td><td style="vertical-align:top;">:</td><td><div></div></td></tr><tr><td style="font-weight:bold;vertical-align:top;">max-age</td><td style="vertical-align:top;">:</td><td><div></div></td></tr><tr><td style="font-weight:bold;vertical-align:top;">path</td><td style="vertical-align:top;">:</td><td><div></div></td></tr><tr><td style="font-weight:bold;vertical-align:top;">secure</td><td style="vertical-align:top;">:</td><td><div></div></td></tr><tr><td style="font-weight:bold;vertical-align:top;">version</td><td style="vertical-align:top;">:</td><td><div></div></td></tr></table></div></td></tr><tr><td style="font-weight:bold;vertical-align:top;">session_id_zhidao</td><td style="vertical-align:top;">:</td><td><div>127.0.0.1-ad2cca3e-f3dc-442e-b6a3-342af507f957<table><tr><td style="font-weight:bold;vertical-align:top;">comment</td><td style="vertical-align:top;">:</td><td><div></div></td></tr><tr><td style="font-weight:bold;vertical-align:top;">domain</td><td style="vertical-align:top;">:</td><td><div></div></td></tr><tr><td style="font-weight:bold;vertical-align:top;">expires</td><td style="vertical-align:top;">:</td><td><div></div></td></tr><tr><td style="font-weight:bold;vertical-align:top;">httponly</td><td style="vertical-align:top;">:</td><td><div></div></td></tr><tr><td style="font-weight:bold;vertical-align:top;">max-age</td><td style="vertical-align:top;">:</td><td><div></div></td></tr><tr><td style="font-weight:bold;vertical-align:top;">path</td><td style="vertical-align:top;">:</td><td><div></div></td></tr><tr><td style="font-weight:bold;vertical-align:top;">secure</td><td style="vertical-align:top;">:</td><td><div></div></td></tr><tr><td style="font-weight:bold;vertical-align:top;">version</td><td style="vertical-align:top;">:</td><td><div></div></td></tr></table></div></td></tr></table></div></td></tr><tr><td style="font-weight:bold;vertical-align:top;">env</td><td style="vertical-align:top;">:</td><td><div><table><tr><td style="font-weight:bold;vertical-align:top;">HTTP_ACCEPT</td><td style="vertical-align:top;">:</td><td><div>text/html,application/xhtml+xml,application/xml;q=0.9,image/webp,*/*;q=0.8</div></td></tr><tr><td style="font-weight:bold;vertical-align:top;">HTTP_ACCEPT_ENCODING</td><td style="vertical-align:top;">:</td><td><div>gzip, deflate, sdch</div></td></tr><tr><td style="font-weight:bold;vertical-align:top;">HTTP_ACCEPT_LANGUAGE</td><td style="vertical-align:top;">:</td><td><div>zh-CN,zh;q=0.8</div></td></tr><tr><td style="font-weight:bold;vertical-align:top;">HTTP_CONNECTION</td><td style="vertical-align:top;">:</td><td><div>keep-alive</div></td></tr><tr><td style="font-weight:bold;vertical-align:top;">HTTP_COOKIE</td><td style="vertical-align:top;">:</td><td><div>session_id_school=127.0.0.1-a04b6792-9c02-4fc3-898f-10fd32b29eb4; jiathis_rdc=%7B%22http%3A//127.0.0.1%3A8000/class_page/show_log/tfxx/20103%3Flog_id%3D17%22%3A681177321%2C%22http%3A//127.0.0.1%3A8000/class_page/show_log/tfxx/20103%3Flog_id%3D12%22%3A683059420%2C%22http%3A//127.0.0.1%3A8000/class_page/show_log/tfxx/20103%3Flog_id%3D19%22%3A0%7C1461117404583%2C%22http%3A//127.0.0.1%3A8000/notice/show/1242%22%3A%220%7C1461209656257%22%7D; session_id_zhidao=127.0.0.1-ad2cca3e-f3dc-442e-b6a3-342af507f957; page_size=10; adminLanguage=en; session_id_examples=True; school_abbrev=syxx; session_id_jwgl2=127.0.0.1-1b787ba6-e32e-4485-9232-e101791d146c; session_id_welcome=127.0.0.1-5b2e37da-9653-4cb6-beeb-1ef772bd37aa; session_id_admin=127.0.0.1-49c35235-50b1-440d-bf99-57506bae48c0; session_id_fmgqcx=127.0.0.1-90a7e422-3298-4e49-a43e-1f6399d99936</div></td></tr><tr><td style="font-weight:bold;vertical-align:top;">HTTP_HOST</td><td style="vertical-align:top;">:</td><td><div>127.0.0.1:8001</div></td></tr><tr><td style="font-weight:bold;vertical-align:top;">HTTP_UPGRADE_INSECURE_REQUESTS</td><td style="vertical-align:top;">:</td><td><div>1</div></td></tr><tr><td style="font-weight:bold;vertical-align:top;">HTTP_USER_AGENT</td><td style="vertical-align:top;">:</td><td><div>Mozilla/5.0 (Macintosh; Intel Mac OS X 10_10_3) AppleWebKit/537.36 (KHTML, like Gecko) Chrome/47.0.2526.80 Safari/537.36</div></td></tr><tr><td style="font-weight:bold;vertical-align:top;">PATH_INFO</td><td style="vertical-align:top;">:</td><td><div>/fmgqcx/user/add</div></td></tr><tr><td style="font-weight:bold;vertical-align:top;">QUERY_STRING</td><td style="vertical-align:top;">:</td><td><div></div></td></tr><tr><td style="font-weight:bold;vertical-align:top;">REMOTE_ADDR</td><td style="vertical-align:top;">:</td><td><div>127.0.0.1</div></td></tr><tr><td style="font-weight:bold;vertical-align:top;">REMOTE_PORT</td><td style="vertical-align:top;">:</td><td><div>64502</div></td></tr><tr><td style="font-weight:bold;vertical-align:top;">REQUEST_METHOD</td><td style="vertical-align:top;">:</td><td><div>GET</div></td></tr><tr><td style="font-weight:bold;vertical-align:top;">SCRIPT_NAME</td><td style="vertical-align:top;">:</td><td><div></div></td></tr><tr><td style="font-weight:bold;vertical-align:top;">SERVER_NAME</td><td style="vertical-align:top;">:</td><td><div>AppledeMacBook-Air-4.local</div></td></tr><tr><td style="font-weight:bold;vertical-align:top;">SERVER_PORT</td><td style="vertical-align:top;">:</td><td><div>8001</div></td></tr><tr><td style="font-weight:bold;vertical-align:top;">SERVER_PROTOCOL</td><td style="vertical-align:top;">:</td><td><div>HTTP/1.1</div></td></tr><tr><td style="font-weight:bold;vertical-align:top;">SERVER_SOFTWARE</td><td style="vertical-align:top;">:</td><td><div>Rocket 1.2.6</div></td></tr><tr><td style="font-weight:bold;vertical-align:top;">app_folders</td><td style="vertical-align:top;">:</td><td><div>set([&#x27;/Users/rocky/projects/web2py/applications/admin/&#x27;, &#x27;/Users/rocky/projects/web2py/applications/fmgqcx/&#x27;, &#x27;/Users/rocky/projects/web2py/applications/welcome/&#x27;])</div></td></tr><tr><td style="font-weight:bold;vertical-align:top;">applications_parent</td><td style="vertical-align:top;">:</td><td><div>/Users/rocky/projects/web2py</div></td></tr><tr><td style="font-weight:bold;vertical-align:top;">cmd_args</td><td style="vertical-align:top;">:</td><td><div><table></table></div></td></tr><tr><td style="font-weight:bold;vertical-align:top;">cmd_options</td><td style="vertical-align:top;">:</td><td><div>&lt;Values at 0x10d2fd8c0: {&#x27;verbose&#x27;: False, &#x27;ip&#x27;: &#x27;127.0.0.1&#x27;, &#x27;debuglevel&#x27;: 30, &#x27;with_scheduler&#x27;: False, &#x27;shutdown_timeout&#x27;: 5, &#x27;taskbar&#x27;: False, &#x27;with_coverage&#x27;: False, &#x27;pid_filename&#x27;: &#x27;httpserver.pid&#x27;, &#x27;maxthreads&#x27;: None, &#x27;softcron&#x27;: False, &#x27;server_name&#x27;: &#x27;AppledeMacBook-Air-4.local&#x27;, &#x27;bpython&#x27;: False, &#x27;nogui&#x27;: False, &#x27;port&#x27;: 8000, &#x27;print_errors&#x27;: False, &#x27;extcron&#x27;: False, &#x27;runcron&#x27;: False, &#x27;run_system_tests&#x27;: False, &#x27;test&#x27;: None, &#x27;folder&#x27;: &#x27;/Users/rocky/projects/web2py&#x27;, &#x27;config&#x27;: &#x27;&#x27;, &#x27;minthreads&#x27;: None, &#x27;shell&#x27;: None, &#x27;run&#x27;: &#x27;&#x27;, &#x27;log_filename&#x27;: &#x27;httpserver.log&#x27;, &#x27;profiler_dir&#x27;: None, &#x27;args&#x27;: [&#x27;&#x27;], &#x27;socket_timeout&#x27;: 5, &#x27;ssl_ca_certificate&#x27;: None, &#x27;scheduler&#x27;: None, &#x27;interfaces&#x27;: None, &#x27;ssl_private_key&#x27;: &#x27;&#x27;, &#x27;gae&#x27;: None, &#x27;password&#x27;: &#x27;******&#x27;, &#x27;request_queue_size&#x27;: 5, &#x27;ssl_certificate&#x27;: &#x27;&#x27;, &#x27;cronjob&#x27;: False, &#x27;numthreads&#x27;: None, &#x27;quiet&#x27;: False, &#x27;import_models&#x27;: False, &#x27;timeout&#x27;: 10, &#x27;plain&#x27;: False, &#x27;nobanner&#x27;: False}&gt;</div></td></tr><tr><td style="font-weight:bold;vertical-align:top;">db_sessions</td><td style="vertical-align:top;">:</td><td><div>set([])</div></td></tr><tr><td style="font-weight:bold;vertical-align:top;">debugging</td><td style="vertical-align:top;">:</td><td><div>False</div></td></tr><tr><td style="font-weight:bold;vertical-align:top;">gluon_parent</td><td style="vertical-align:top;">:</td><td><div>/Users/rocky/projects/web2py</div></td></tr><tr><td style="font-weight:bold;vertical-align:top;">http_accept</td><td style="vertical-align:top;">:</td><td><div>text/html,application/xhtml+xml,application/xml;q=0.9,image/webp,*/*;q=0.8</div></td></tr><tr><td style="font-weight:bold;vertical-align:top;">http_accept_encoding</td><td style="vertical-align:top;">:</td><td><div>gzip, deflate, sdch</div></td></tr><tr><td style="font-weight:bold;vertical-align:top;">http_accept_language</td><td style="vertical-align:top;">:</td><td><div>zh-CN,zh;q=0.8</div></td></tr><tr><td style="font-weight:bold;vertical-align:top;">http_connection</td><td style="vertical-align:top;">:</td><td><div>keep-alive</div></td></tr><tr><td style="font-weight:bold;vertical-align:top;">http_cookie</td><td style="vertical-align:top;">:</td><td><div>session_id_school=127.0.0.1-a04b6792-9c02-4fc3-898f-10fd32b29eb4; jiathis_rdc=%7B%22http%3A//127.0.0.1%3A8000/class_page/show_log/tfxx/20103%3Flog_id%3D17%22%3A681177321%2C%22http%3A//127.0.0.1%3A8000/class_page/show_log/tfxx/20103%3Flog_id%3D12%22%3A683059420%2C%22http%3A//127.0.0.1%3A8000/class_page/show_log/tfxx/20103%3Flog_id%3D19%22%3A0%7C1461117404583%2C%22http%3A//127.0.0.1%3A8000/notice/show/1242%22%3A%220%7C1461209656257%22%7D; session_id_zhidao=127.0.0.1-ad2cca3e-f3dc-442e-b6a3-342af507f957; page_size=10; adminLanguage=en; session_id_examples=True; school_abbrev=syxx; session_id_jwgl2=127.0.0.1-1b787ba6-e32e-4485-9232-e101791d146c; session_id_welcome=127.0.0.1-5b2e37da-9653-4cb6-beeb-1ef772bd37aa; session_id_admin=127.0.0.1-49c35235-50b1-440d-bf99-57506bae48c0; session_id_fmgqcx=127.0.0.1-90a7e422-3298-4e49-a43e-1f6399d99936</div></td></tr><tr><td style="font-weight:bold;vertical-align:top;">http_host</td><td style="vertical-align:top;">:</td><td><div>127.0.0.1:8001</div></td></tr><tr><td style="font-weight:bold;vertical-align:top;">http_upgrade_insecure_requests</td><td style="vertical-align:top;">:</td><td><div>1</div></td></tr><tr><td style="font-weight:bold;vertical-align:top;">http_user_agent</td><td style="vertical-align:top;">:</td><td><div>Mozilla/5.0 (Macintosh; Intel Mac OS X 10_10_3) AppleWebKit/537.36 (KHTML, like Gecko) Chrome/47.0.2526.80 Safari/537.36</div></td></tr><tr><td style="font-weight:bold;vertical-align:top;">is_jython</td><td style="vertical-align:top;">:</td><td><div>False</div></td></tr><tr><td style="font-weight:bold;vertical-align:top;">is_pypy</td><td style="vertical-align:top;">:</td><td><div>False</div></td></tr><tr><td style="font-weight:bold;vertical-align:top;">is_source</td><td style="vertical-align:top;">:</td><td><div>True</div></td></tr><tr><td style="font-weight:bold;vertical-align:top;">local_hosts</td><td style="vertical-align:top;">:</td><td><div><table><tr><td><div>AppledeMacBook-Air-4.local</div></td></tr><tr><td><div>::ffff:127.0.0.1</div></td></tr><tr><td><div>::1</div></td></tr><tr><td><div>fe80::9ae0:d9ff:fea8:1f97%en0</div></td></tr><tr><td><div>192.168.0.108</div></td></tr><tr><td><div>127.0.0.1</div></td></tr></table></div></td></tr><tr><td style="font-weight:bold;vertical-align:top;">path_info</td><td style="vertical-align:top;">:</td><td><div>/fmgqcx/user/add</div></td></tr><tr><td style="font-weight:bold;vertical-align:top;">query_string</td><td style="vertical-align:top;">:</td><td><div></div></td></tr><tr><td style="font-weight:bold;vertical-align:top;">remote_addr</td><td style="vertical-align:top;">:</td><td><div>127.0.0.1</div></td></tr><tr><td style="font-weight:bold;vertical-align:top;">remote_port</td><td style="vertical-align:top;">:</td><td><div>64502</div></td></tr><tr><td style="font-weight:bold;vertical-align:top;">request_method</td><td style="vertical-align:top;">:</td><td><div>GET</div></td></tr><tr><td style="font-weight:bold;vertical-align:top;">request_uri</td><td style="vertical-align:top;">:</td><td><div>/fmgqcx/user/add</div></td></tr><tr><td style="font-weight:bold;vertical-align:top;">script_name</td><td style="vertical-align:top;">:</td><td><div></div></td></tr><tr><td style="font-weight:bold;vertical-align:top;">server_name</td><td style="vertical-align:top;">:</td><td><div>AppledeMacBook-Air-4.local</div></td></tr><tr><td style="font-weight:bold;vertical-align:top;">server_port</td><td style="vertical-align:top;">:</td><td><div>8001</div></td></tr><tr><td style="font-weight:bold;vertical-align:top;">server_protocol</td><td style="vertical-align:top;">:</td><td><div>HTTP/1.1</div></td></tr><tr><td style="font-weight:bold;vertical-align:top;">server_software</td><td style="vertical-align:top;">:</td><td><div>Rocket 1.2.6</div></td></tr><tr><td style="font-weight:bold;vertical-align:top;">web2py_path</td><td style="vertical-align:top;">:</td><td><div>/Users/rocky/projects/web2py</div></td></tr><tr><td style="font-weight:bold;vertical-align:top;">web2py_version</td><td style="vertical-align:top;">:</td><td><div>2.14.5-stable+timestamp.2016.04.14.03.26.16</div></td></tr><tr><td style="font-weight:bold;vertical-align:top;">wsgi.errors</td><td style="vertical-align:top;">:</td><td><div>&lt;open file &#x27;&lt;stderr&gt;&#x27;, mode &#x27;w&#x27; at 0x10c4471e0&gt;</div></td></tr><tr><td style="font-weight:bold;vertical-align:top;">wsgi.file_wrapper</td><td style="vertical-align:top;">:</td><td><div>&lt;class wsgiref.util.FileWrapper at 0x10d2b54c8&gt;</div></td></tr><tr><td style="font-weight:bold;vertical-align:top;">wsgi.input</td><td style="vertical-align:top;">:</td><td><div>&lt;socket._fileobject object at 0x113fb0c50&gt;</div></td></tr><tr><td style="font-weight:bold;vertical-align:top;">wsgi.multiprocess</td><td style="vertical-align:top;">:</td><td><div>False</div></td></tr><tr><td style="font-weight:bold;vertical-align:top;">wsgi.multithread</td><td style="vertical-align:top;">:</td><td><div>True</div></td></tr><tr><td style="font-weight:bold;vertical-align:top;">wsgi.run_once</td><td style="vertical-align:top;">:</td><td><div>False</div></td></tr><tr><td style="font-weight:bold;vertical-align:top;">wsgi.url_scheme</td><td style="vertical-align:top;">:</td><td><div>http</div></td></tr><tr><td style="font-weight:bold;vertical-align:top;">wsgi.version</td><td style="vertical-align:top;">:</td><td><div><table><tr><td><div>1</div></td></tr><tr><td><div>0</div></td></tr></table></div></td></tr><tr><td style="font-weight:bold;vertical-align:top;">wsgi_errors</td><td style="vertical-align:top;">:</td><td><div>&lt;open file &#x27;&lt;stderr&gt;&#x27;, mode &#x27;w&#x27; at 0x10c4471e0&gt;</div></td></tr><tr><td style="font-weight:bold;vertical-align:top;">wsgi_file_wrapper</td><td style="vertical-align:top;">:</td><td><div>&lt;class wsgiref.util.FileWrapper at 0x10d2b54c8&gt;</div></td></tr><tr><td style="font-weight:bold;vertical-align:top;">wsgi_input</td><td style="vertical-align:top;">:</td><td><div>&lt;socket._fileobject object at 0x113fb0c50&gt;</div></td></tr><tr><td style="font-weight:bold;vertical-align:top;">wsgi_multiprocess</td><td style="vertical-align:top;">:</td><td><div>False</div></td></tr><tr><td style="font-weight:bold;vertical-align:top;">wsgi_multithread</td><td style="vertical-align:top;">:</td><td><div>True</div></td></tr><tr><td style="font-weight:bold;vertical-align:top;">wsgi_run_once</td><td style="vertical-align:top;">:</td><td><div>False</div></td></tr><tr><td style="font-weight:bold;vertical-align:top;">wsgi_url_scheme</td><td style="vertical-align:top;">:</td><td><div>http</div></td></tr><tr><td style="font-weight:bold;vertical-align:top;">wsgi_version</td><td style="vertical-align:top;">:</td><td><div><table><tr><td><div>1</div></td></tr><tr><td><div>0</div></td></tr></table></div></td></tr></table></div></td></tr><tr><td style="font-weight:bold;vertical-align:top;">extension</td><td style="vertical-align:top;">:</td><td><div>html</div></td></tr><tr><td style="font-weight:bold;vertical-align:top;">folder</td><td style="vertical-align:top;">:</td><td><div>/Users/rocky/projects/web2py/applications/fmgqcx/</div></td></tr><tr><td style="font-weight:bold;vertical-align:top;">function</td><td style="vertical-align:top;">:</td><td><div>add</div></td></tr><tr><td style="font-weight:bold;vertical-align:top;">global_settings</td><td style="vertical-align:top;">:</td><td><div><table><tr><td style="font-weight:bold;vertical-align:top;">app_folders</td><td style="vertical-align:top;">:</td><td><div>set([&#x27;/Users/rocky/projects/web2py/applications/admin/&#x27;, &#x27;/Users/rocky/projects/web2py/applications/fmgqcx/&#x27;, &#x27;/Users/rocky/projects/web2py/applications/welcome/&#x27;])</div></td></tr><tr><td style="font-weight:bold;vertical-align:top;">applications_parent</td><td style="vertical-align:top;">:</td><td><div>/Users/rocky/projects/web2py</div></td></tr><tr><td style="font-weight:bold;vertical-align:top;">cmd_args</td><td style="vertical-align:top;">:</td><td><div><table></table></div></td></tr><tr><td style="font-weight:bold;vertical-align:top;">cmd_options</td><td style="vertical-align:top;">:</td><td><div>&lt;Values at 0x10d2fd8c0: {&#x27;verbose&#x27;: False, &#x27;ip&#x27;: &#x27;127.0.0.1&#x27;, &#x27;debuglevel&#x27;: 30, &#x27;with_scheduler&#x27;: False, &#x27;shutdown_timeout&#x27;: 5, &#x27;taskbar&#x27;: False, &#x27;with_coverage&#x27;: False, &#x27;pid_filename&#x27;: &#x27;httpserver.pid&#x27;, &#x27;maxthreads&#x27;: None, &#x27;softcron&#x27;: False, &#x27;server_name&#x27;: &#x27;AppledeMacBook-Air-4.local&#x27;, &#x27;bpython&#x27;: False, &#x27;nogui&#x27;: False, &#x27;port&#x27;: 8000, &#x27;print_errors&#x27;: False, &#x27;extcron&#x27;: False, &#x27;runcron&#x27;: False, &#x27;run_system_tests&#x27;: False, &#x27;test&#x27;: None, &#x27;folder&#x27;: &#x27;/Users/rocky/projects/web2py&#x27;, &#x27;config&#x27;: &#x27;&#x27;, &#x27;minthreads&#x27;: None, &#x27;shell&#x27;: None, &#x27;run&#x27;: &#x27;&#x27;, &#x27;log_filename&#x27;: &#x27;httpserver.log&#x27;, &#x27;profiler_dir&#x27;: None, &#x27;args&#x27;: [&#x27;&#x27;], &#x27;socket_timeout&#x27;: 5, &#x27;ssl_ca_certificate&#x27;: None, &#x27;scheduler&#x27;: None, &#x27;interfaces&#x27;: None, &#x27;ssl_private_key&#x27;: &#x27;&#x27;, &#x27;gae&#x27;: None, &#x27;password&#x27;: &#x27;******&#x27;, &#x27;request_queue_size&#x27;: 5, &#x27;ssl_certificate&#x27;: &#x27;&#x27;, &#x27;cronjob&#x27;: False, &#x27;numthreads&#x27;: None, &#x27;quiet&#x27;: False, &#x27;import_models&#x27;: False, &#x27;timeout&#x27;: 10, &#x27;plain&#x27;: False, &#x27;nobanner&#x27;: False}&gt;</div></td></tr><tr><td style="font-weight:bold;vertical-align:top;">db_sessions</td><td style="vertical-align:top;">:</td><td><div>set([])</div></td></tr><tr><td style="font-weight:bold;vertical-align:top;">debugging</td><td style="vertical-align:top;">:</td><td><div>False</div></td></tr><tr><td style="font-weight:bold;vertical-align:top;">gluon_parent</td><td style="vertical-align:top;">:</td><td><div>/Users/rocky/projects/web2py</div></td></tr><tr><td style="font-weight:bold;vertical-align:top;">is_jython</td><td style="vertical-align:top;">:</td><td><div>False</div></td></tr><tr><td style="font-weight:bold;vertical-align:top;">is_pypy</td><td style="vertical-align:top;">:</td><td><div>False</div></td></tr><tr><td style="font-weight:bold;vertical-align:top;">is_source</td><td style="vertical-align:top;">:</td><td><div>True</div></td></tr><tr><td style="font-weight:bold;vertical-align:top;">local_hosts</td><td style="vertical-align:top;">:</td><td><div><table><tr><td><div>AppledeMacBook-Air-4.local</div></td></tr><tr><td><div>::ffff:127.0.0.1</div></td></tr><tr><td><div>::1</div></td></tr><tr><td><div>fe80::9ae0:d9ff:fea8:1f97%en0</div></td></tr><tr><td><div>192.168.0.108</div></td></tr><tr><td><div>127.0.0.1</div></td></tr></table></div></td></tr><tr><td style="font-weight:bold;vertical-align:top;">web2py_version</td><td style="vertical-align:top;">:</td><td><div>2.14.5-stable+timestamp.2016.04.14.03.26.16</div></td></tr></table></div></td></tr><tr><td style="font-weight:bold;vertical-align:top;">is_https</td><td style="vertical-align:top;">:</td><td><div>False</div></td></tr><tr><td style="font-weight:bold;vertical-align:top;">is_local</td><td style="vertical-align:top;">:</td><td><div>True</div></td></tr><tr><td style="font-weight:bold;vertical-align:top;">is_restful</td><td style="vertical-align:top;">:</td><td><div>False</div></td></tr><tr><td style="font-weight:bold;vertical-align:top;">is_scheduler</td><td style="vertical-align:top;">:</td><td><div>False</div></td></tr><tr><td style="font-weight:bold;vertical-align:top;">is_shell</td><td style="vertical-align:top;">:</td><td><div>False</div></td></tr><tr><td style="font-weight:bold;vertical-align:top;">now</td><td style="vertical-align:top;">:</td><td><div>datetime.datetime(2016, 5, 16, 15, 36, 57, 280736)</div></td></tr><tr><td style="font-weight:bold;vertical-align:top;">raw_args</td><td style="vertical-align:top;">:</td><td><div></div></td></tr><tr><td style="font-weight:bold;vertical-align:top;">raw_extension</td><td style="vertical-align:top;">:</td><td><div>None</div></td></tr><tr><td style="font-weight:bold;vertical-align:top;">url</td><td style="vertical-align:top;">:</td><td><div>/fmgqcx/user/add</div></td></tr><tr><td style="font-weight:bold;vertical-align:top;">utcnow</td><td style="vertical-align:top;">:</td><td><div>datetime.datetime(2016, 5, 16, 7, 36, 57, 280744)</div></td></tr><tr><td style="font-weight:bold;vertical-align:top;">wsgi</td><td style="vertical-align:top;">:</td><td><div>&lt;gluon.main.LazyWSGI object at 0x114240210&gt;</div></td></tr></table></div>'
tRp58
sS'frames'
p59
(lp60
(dp61
S'file'
p62
S'/Users/rocky/projects/web2py/gluon/restricted.py'
p63
sS'dump'
p64
(dp65
S'environment'
p66
S"{'A': <class 'gluon.html.A'>, 'ANY_OF': <class 'gluon.validators.ANY_OF'>, 'ASSIGNJS': <function ASSIGNJS>, 'Auth': <class 'gluon.tools.Auth'>, 'B': <class 'gluon.html.B'>, 'BEAUTIFY': <class 'gluon.html.BEAUTIFY'>, 'BODY': <class 'gluon.html.BODY'>, 'BR': <class 'gluon.html.BR'>, 'BUTTON': <class 'gluon.html.BUTTON'>, 'CAT': <class 'gluon.html.CAT'>, ...}"
p67
sS'ccode'
p68
S'<code object <module> at 0x10dc2f4b0, file "/Use...applications/fmgqcx/views/user/add.html", line 1>'
p69
ssS'lnum'
p70
I227
sS'lines'
p71
(dp72
I224
S'            ccode = code'
p73
sI225
S'        else:'
p74
sI226
S'            ccode = compile2(code, layer)'
p75
sI227
S'        exec ccode in environment'
p76
sI228
S'    except HTTP:'
p77
sI229
S'        raise'
p78
sI230
S'    except RestrictedError:'
p79
sI231
S'        # do not encapsulate (obfuscate) the original RestrictedError'
p80
sI222
S'    try:'
p81
sI223
S'        if isinstance(code, types.CodeType):'
p82
ssS'call'
p83
S'(code=\'response.write(\\\'<!DOCTYPE html>\\\\n<html xmlns="ht...</script>\\\\n    </body>\\\\n</html>\\\\n\\\', escape=False)\', environment={\'A\': <class \'gluon.html.A\'>, \'ANY_OF\': <class \'gluon.validators.ANY_OF\'>, \'ASSIGNJS\': <function ASSIGNJS>, \'Auth\': <class \'gluon.tools.Auth\'>, \'B\': <class \'gluon.html.B\'>, \'BEAUTIFY\': <class \'gluon.html.BEAUTIFY\'>, \'BODY\': <class \'gluon.html.BODY\'>, \'BR\': <class \'gluon.html.BR\'>, \'BUTTON\': <class \'gluon.html.BUTTON\'>, \'CAT\': <class \'gluon.html.CAT\'>, ...}, layer=\'/Users/rocky/projects/web2py/applications/fmgqcx/views/user/add.html\')'
p84
sS'func'
p85
S'restricted'
p86
sa(dp87
g62
S'/Users/rocky/projects/web2py/applications/fmgqcx/views/user/add.html'
p88
sg64
(dp89
S'select'
p90
S'undefined'
p91
ssg70
I56
sg71
(dp92
I64
S'response.write(form.custom.end)'
p93
sI65
S"response.write('\\n    </div>\\n</div>\\n', escape=False)"
p94
sI66
S"response.write('\\n                    </div><!-- /main span12 -->\\n                </div><!-- /main row-fluid -->\\n            </div><!-- /#main -->\\n\\n        <!-- FOOTER\\n        ============== -->\\n        ', escape=False)"
p95
sI47
S'response.write(\'\\n<h3>\\xe6\\xb7\\xbb\\xe5\\x8a\\xa0\\xe7\\x94\\xa8\\xe6\\x88\\xb7</h3>\\n<div class="container-fluid">\\n    <div class="student-info ">\\n        <div class="infoDetail">\\n            <p class="title">\\xe5\\xbd\\x95\\xe5\\x85\\xa5\\xe8\\xaf\\xbe\\xe7\\xa8\\x8b\\xe5\\x8d\\x95\\xe5\\x85\\x83</p>\\n        </div>\\n        \', escape=False)'
p96
sI48
S'response.write(form.custom.begin)'
p97
sI49
S"response.write('\\n        ', escape=False)"
p98
sI50
S"form.custom.submit['_value']='\xe7\xa1\xae\xe5\xae\x9a'"
p99
sI51
S"response.write('\\n        ', escape=False)"
p100
sI52
S"form.custom.submit['_class']='btn  btn-primary pull-right'"
p101
sI53
S"response.write('\\n        ', escape=False)"
p102
sI54
S'import time'
p103
sI55
S'response.write(\'\\n        <table class="table-no-border" style="width:100%">\\n            <tr>\\n                <td>\\n                    <label class="control-label">\\xe5\\x8d\\x95\\xe5\\x85\\x83\\xe5\\x8f\\xb7</label>\\n                </td>\\n            </tr>\\n            <tr>\\n                <td>\\n                    <input class="form-control" type="text"  value="" name="unit_no">\\n                    <span class="errmsg" id="errmsg_no">\\xe4\\xb8\\x8d\\xe8\\x83\\xbd\\xe4\\xb8\\xba\\xe7\\xa9\\xba</span>\\n                </td>\\n            </tr>\\n            <tr>\\n                <td>\\n                    <label class="control-label">\\xe5\\x8d\\x95\\xe5\\x85\\x83\\xe5\\x90\\x8d</label>\\n                </td>\\n            </tr>\\n            <tr>\\n                <td>\\n                    <input type="text" name="unit_name" class="form-control" value="" >\\n                    <span class="errmsg" id="errmsg_name">\\xe4\\xb8\\x8d\\xe8\\x83\\xbd\\xe4\\xb8\\xba\\xe7\\xa9\\xba</span>\\n                </td>\\n            </tr>\\n            <tr>\\n                <td>\\n                    <label style="margin-bottom:-8px;">\\xe5\\xb9\\xb4\\xe7\\xba\\xa7</label>\\n                </td>\\n            </tr>\\n            <tr>\\n                <td>\\n                    <input type="text" class="form-control" name="grade" />\\n                </td>\\n            </tr>\\n            <tr>\\n                <td>\\n                    <label style="margin-bottom:-8px;">\\xe5\\x88\\x86\\xe5\\x86\\x8c</label>\\n                </td>\\n            </tr>\\n            <tr>\\n                <td>\\n                    <select class="form-control" name="book">\\n                        <option></option>\\n                        <option value="\\xe4\\xb8\\x8a\\xe5\\x86\\x8c">\\xe4\\xb8\\x8a\\xe5\\x86\\x8c</option>\\n                        <option value="\\xe4\\xb8\\x8b\\xe5\\x86\\x8c">\\xe4\\xb8\\x8b\\xe5\\x86\\x8c</option>\\n                    </select>\\n                </td>\\n            </tr>\\n            <tr>\\n                <td>\\n                    <label style="margin-bottom:-8px;">\\xe7\\xa7\\x91\\xe7\\x9b\\xae</label>\\n                </td>\\n            </tr>\\n            <tr>\\n                <td>\\n                    <select class="form-control" name="subject_id">\\n                        \', escape=False)'
p104
sI56
S'for subject in subject_list:'
p105
sI57
S'    response.write(\'\\n                        <option value="\', escape=False)'
p106
sI58
S'    response.write(subject.id)'
p107
sI59
S'    response.write(\'">\', escape=False)'
p108
sI60
S'    response.write(subject.name)'
p109
sI61
S"    response.write('</option>\\n                        ', escape=False)"
p110
sI62
S'    pass'
p111
sI63
S'response.write(\'\\n                    </select>\\n                </td>\\n            </tr>\\n            <tr>\\n                <td>\\n                    <label style="margin-bottom:-8px;">\\xe6\\x95\\x99\\xe6\\x9d\\x90\\xe7\\x89\\x88\\xe6\\x9c\\xac</label>\\n                </td>\\n            </tr>\\n            <tr>\\n                <td>\\n                    <input type="text" name="edition" class="form-control" />\\n                </td>\\n            </tr>\\n        </table>\\n        <a href="javascript:window.history.go(-1)" class="btn  btn-danger pull-right" onClick="">\\xe5\\x8f\\x96\\xe6\\xb6\\x88</a>\\n        <a href="#" class="btn  btn-primary pull-right" id="sure">\\xe7\\xa1\\xae\\xe5\\xae\\x9a</a>\\n        \', escape=False)'
p112
ssg83
S'()'
p113
sg85
S'<module>'
p114
sasS'pyver'
p115
S'Python 2.7.6: /usr/bin/python (prefix: /System/Library/Frameworks/Python.framework/Versions/2.7)'
p116
sS'session'
p117
g57
(S's\x00\n\x00\x00<div><table><tr><td style="font-weight:bold;vertical-align:top;">auth</td><td style="vertical-align:top;">:</td><td><div><table><tr><td style="font-weight:bold;vertical-align:top;">expiration</td><td style="vertical-align:top;">:</td><td><div>3600</div></td></tr><tr><td style="font-weight:bold;vertical-align:top;">hmac_key</td><td style="vertical-align:top;">:</td><td><div>6a70f3c0-e69d-4fc8-86de-6d3753904d12</div></td></tr><tr><td style="font-weight:bold;vertical-align:top;">last_visit</td><td style="vertical-align:top;">:</td><td><div>datetime.datetime(2016, 5, 16, 15, 36, 57, 280736)</div></td></tr><tr><td style="font-weight:bold;vertical-align:top;">remember_me</td><td style="vertical-align:top;">:</td><td><div>False</div></td></tr><tr><td style="font-weight:bold;vertical-align:top;">user</td><td style="vertical-align:top;">:</td><td><div><table><tr><td style="font-weight:bold;vertical-align:top;">email</td><td style="vertical-align:top;">:</td><td><div>example@domain.com</div></td></tr><tr><td style="font-weight:bold;vertical-align:top;">first_name</td><td style="vertical-align:top;">:</td><td><div>admin</div></td></tr><tr><td style="font-weight:bold;vertical-align:top;">id</td><td style="vertical-align:top;">:</td><td><div>1L</div></td></tr><tr><td style="font-weight:bold;vertical-align:top;">identity_card</td><td style="vertical-align:top;">:</td><td><div></div></td></tr><tr><td style="font-weight:bold;vertical-align:top;">last_name</td><td style="vertical-align:top;">:</td><td><div>\xe7\xae\xa1\xe7\x90\x86\xe5\x91\x98</div></td></tr><tr><td style="font-weight:bold;vertical-align:top;">registration_id</td><td style="vertical-align:top;">:</td><td><div></div></td></tr><tr><td style="font-weight:bold;vertical-align:top;">registration_key</td><td style="vertical-align:top;">:</td><td><div></div></td></tr><tr><td style="font-weight:bold;vertical-align:top;">reset_password_key</td><td style="vertical-align:top;">:</td><td><div></div></td></tr><tr><td style="font-weight:bold;vertical-align:top;">username</td><td style="vertical-align:top;">:</td><td><div>admin</div></td></tr></table></div></td></tr><tr><td style="font-weight:bold;vertical-align:top;">user_groups</td><td style="vertical-align:top;">:</td><td><div><table></table></div></td></tr></table></div></td></tr><tr><td style="font-weight:bold;vertical-align:top;">authorized</td><td style="vertical-align:top;">:</td><td><div>True</div></td></tr><tr><td style="font-weight:bold;vertical-align:top;">flash</td><td style="vertical-align:top;">:</td><td><div>None</div></td></tr></table></div>'
tRp118
sS'etype'
p119
S"<type 'exceptions.NameError'>"
p120
sS'date'
p121
S'Mon May 16 15:36:57 2016'
p122
sS'response'
p123
g57
(S's\xda\x1c\x00\x00<div><table><tr><td style="font-weight:bold;vertical-align:top;">body</td><td style="vertical-align:top;">:</td><td><div>&lt;cStringIO.StringO object at 0x113fb27d8&gt;</div></td></tr><tr><td style="font-weight:bold;vertical-align:top;">cookies</td><td style="vertical-align:top;">:</td><td><div><table><tr><td style="font-weight:bold;vertical-align:top;">session_id_fmgqcx</td><td style="vertical-align:top;">:</td><td><div>127.0.0.1-90a7e422-3298-4e49-a43e-1f6399d99936<table><tr><td style="font-weight:bold;vertical-align:top;">comment</td><td style="vertical-align:top;">:</td><td><div></div></td></tr><tr><td style="font-weight:bold;vertical-align:top;">domain</td><td style="vertical-align:top;">:</td><td><div></div></td></tr><tr><td style="font-weight:bold;vertical-align:top;">expires</td><td style="vertical-align:top;">:</td><td><div></div></td></tr><tr><td style="font-weight:bold;vertical-align:top;">httponly</td><td style="vertical-align:top;">:</td><td><div></div></td></tr><tr><td style="font-weight:bold;vertical-align:top;">max-age</td><td style="vertical-align:top;">:</td><td><div></div></td></tr><tr><td style="font-weight:bold;vertical-align:top;">path</td><td style="vertical-align:top;">:</td><td><div>/</div></td></tr><tr><td style="font-weight:bold;vertical-align:top;">secure</td><td style="vertical-align:top;">:</td><td><div></div></td></tr><tr><td style="font-weight:bold;vertical-align:top;">version</td><td style="vertical-align:top;">:</td><td><div></div></td></tr></table></div></td></tr></table></div></td></tr><tr><td style="font-weight:bold;vertical-align:top;">delimiters</td><td style="vertical-align:top;">:</td><td><div><table><tr><td><div>{{</div></td></tr><tr><td><div>}}</div></td></tr></table></div></td></tr><tr><td style="font-weight:bold;vertical-align:top;">files</td><td style="vertical-align:top;">:</td><td><div><table><tr><td><div>/fmgqcx/static/js/jquery.js</div></td></tr><tr><td><div>/fmgqcx/static/css/calendar.css</div></td></tr><tr><td><div>/fmgqcx/static/js/calendar.js</div></td></tr><tr><td><div>/fmgqcx/static/js/web2py.js</div></td></tr><tr><td><div>/fmgqcx/static/css/bootstrap.min.css</div></td></tr><tr><td><div>/fmgqcx/static/css/bootstrap_essentials.css</div></td></tr><tr><td><div>/fmgqcx/static/css/bootstrap-responsive.min.css</div></td></tr></table></div></td></tr><tr><td style="font-weight:bold;vertical-align:top;">flash</td><td style="vertical-align:top;">:</td><td><div></div></td></tr><tr><td style="font-weight:bold;vertical-align:top;">form_label_separator</td><td style="vertical-align:top;">:</td><td><div>: </div></td></tr><tr><td style="font-weight:bold;vertical-align:top;">formstyle</td><td style="vertical-align:top;">:</td><td><div>table3cols</div></td></tr><tr><td style="font-weight:bold;vertical-align:top;">generic_patterns</td><td style="vertical-align:top;">:</td><td><div><table><tr><td><div>*</div></td></tr></table></div></td></tr><tr><td style="font-weight:bold;vertical-align:top;">headers</td><td style="vertical-align:top;">:</td><td><div><table><tr><td style="font-weight:bold;vertical-align:top;">X-Powered-By</td><td style="vertical-align:top;">:</td><td><div>web2py</div></td></tr></table></div></td></tr><tr><td style="font-weight:bold;vertical-align:top;">menu</td><td style="vertical-align:top;">:</td><td><div><table><tr><td><div><table><tr><td><div>\xe9\xa6\x96\xe9\xa1\xb5</div></td></tr><tr><td><div>False</div></td></tr><tr><td><div>/fmgqcx/default/index</div></td></tr></table></div></td></tr><tr><td><div><table><tr><td><div>\xe5\x85\xac\xe5\x91\x8a</div></td></tr><tr><td><div>False</div></td></tr><tr><td><div>/fmgqcx/notice/index</div></td></tr></table></div></td></tr><tr><td><div><table><tr><td><div>\xe7\x95\x99\xe8\xa8\x80</div></td></tr><tr><td><div>False</div></td></tr><tr><td><div>/fmgqcx/message/index</div></td></tr></table></div></td></tr><tr><td><div><table><tr><td><div>\xe7\x94\xa8\xe6\x88\xb7\xe7\xae\xa1\xe7\x90\x86</div></td></tr><tr><td><div>True</div></td></tr><tr><td><div>/fmgqcx/user/index</div></td></tr></table></div></td></tr><tr><td><div><table><tr><td><div>\xe7\x99\xbb\xe5\x87\xba</div></td></tr><tr><td><div>False</div></td></tr><tr><td><div>/fmgqcx/default/logout</div></td></tr></table></div></td></tr></table></div></td></tr><tr><td style="font-weight:bold;vertical-align:top;">meta</td><td style="vertical-align:top;">:</td><td><div><table></table></div></td></tr><tr><td style="font-weight:bold;vertical-align:top;">models_to_run</td><td style="vertical-align:top;">:</td><td><div><table><tr><td><div>^\\w+\\.py$</div></td></tr><tr><td><div>^user/\\w+\\.py$</div></td></tr><tr><td><div>^user/add/\\w+\\.py$</div></td></tr></table></div></td></tr><tr><td style="font-weight:bold;vertical-align:top;">postprocessing</td><td style="vertical-align:top;">:</td><td><div><table></table></div></td></tr><tr><td style="font-weight:bold;vertical-align:top;">session_client</td><td style="vertical-align:top;">:</td><td><div>127.0.0.1</div></td></tr><tr><td style="font-weight:bold;vertical-align:top;">session_cookie_compression_level</td><td style="vertical-align:top;">:</td><td><div>None</div></td></tr><tr><td style="font-weight:bold;vertical-align:top;">session_cookie_expires</td><td style="vertical-align:top;">:</td><td><div>None</div></td></tr><tr><td style="font-weight:bold;vertical-align:top;">session_data_name</td><td style="vertical-align:top;">:</td><td><div>session_data_fmgqcx</div></td></tr><tr><td style="font-weight:bold;vertical-align:top;">session_file</td><td style="vertical-align:top;">:</td><td><div>&lt;open file &#x27;/Users/rocky/projects/web2py/applications/fmgqcx/sessions/1e3/0ea/127.0.0.1-90a7e422-3298-4e49-a43e-1f6399d99936&#x27;, mode &#x27;rb+&#x27; at 0x1140bc540&gt;</div></td></tr><tr><td style="font-weight:bold;vertical-align:top;">session_filename</td><td style="vertical-align:top;">:</td><td><div>/Users/rocky/projects/web2py/applications/fmgqcx/sessions/127.0.0.1-90a7e422-3298-4e49-a43e-1f6399d99936</div></td></tr><tr><td style="font-weight:bold;vertical-align:top;">session_hash</td><td style="vertical-align:top;">:</td><td><div>609a9ee233b4fb36b71e771f58fb2699</div></td></tr><tr><td style="font-weight:bold;vertical-align:top;">session_id</td><td style="vertical-align:top;">:</td><td><div>127.0.0.1-90a7e422-3298-4e49-a43e-1f6399d99936</div></td></tr><tr><td style="font-weight:bold;vertical-align:top;">session_id_name</td><td style="vertical-align:top;">:</td><td><div>session_id_fmgqcx</div></td></tr><tr><td style="font-weight:bold;vertical-align:top;">session_locked</td><td style="vertical-align:top;">:</td><td><div>True</div></td></tr><tr><td style="font-weight:bold;vertical-align:top;">session_masterapp</td><td style="vertical-align:top;">:</td><td><div>fmgqcx</div></td></tr><tr><td style="font-weight:bold;vertical-align:top;">session_new</td><td style="vertical-align:top;">:</td><td><div>False</div></td></tr><tr><td style="font-weight:bold;vertical-align:top;">session_storage_type</td><td style="vertical-align:top;">:</td><td><div>file</div></td></tr><tr><td style="font-weight:bold;vertical-align:top;">status</td><td style="vertical-align:top;">:</td><td><div>200</div></td></tr><tr><td style="font-weight:bold;vertical-align:top;">title</td><td style="vertical-align:top;">:</td><td><div>FMGQCX\xe4\xbf\xa1\xe6\x81\xaf\xe6\x9f\xa5\xe8\xaf\xa2\xe7\xb3\xbb\xe7\xbb\x9f</div></td></tr><tr><td style="font-weight:bold;vertical-align:top;">view</td><td style="vertical-align:top;">:</td><td><div>user/add.html</div></td></tr></table></div>'
tRp124
sS'locals'
p125
(dp126
S'Service'
p127
S"<class 'gluon.tools.Service'>"
p128
sS'OBJECT'
p129
S"<class 'gluon.html.OBJECT'>"
p130
sS'SQLDB'
p131
S"<class 'pydal.base.DAL'>"
p132
sg117
S"<Storage {'_formkey[profile]': ['fcd2eadc-1823-4...gin]': ['1553f8b4-ceb8-4758-ae83-202f350f9feb']}>"
p133
sS'reverse_geocode'
p134
S'<function reverse_geocode>'
p135
sS'Auth'
p136
S"<class 'gluon.tools.Auth'>"
p137
sS'BR'
p138
S"<class 'gluon.html.BR'>"
p139
sS'local_import'
p140
S'<function <lambda>>'
p141
sS'OPTGROUP'
p142
S"<class 'gluon.html.OPTGROUP'>"
p143
sS'__package__'
p144
S'None'
p145
sS'compile2'
p146
S'<function compile2>'
p147
sS'redirect'
p148
S'<function redirect>'
p149
sS'IS_INT_IN_RANGE'
p150
S"<class 'gluon.validators.IS_INT_IN_RANGE'>"
p151
sS'IS_LOWER'
p152
S"<class 'gluon.validators.IS_LOWER'>"
p153
sS'IS_STRONG'
p154
S"<class 'gluon.validators.IS_STRONG'>"
p155
sS'Recaptcha'
p156
S"<class 'gluon.tools.Recaptcha'>"
p157
sS'cache'
p158
S'<gluon.cache.Cache object>'
p159
sS'_link'
p160
S"'/fmgqcx/default/logout'"
p161
sS'IS_IN_DB'
p162
S"<class 'gluon.validators.IS_IN_DB'>"
p163
sS'TAG'
p164
S'<gluon.html.__TAG__ object>'
p165
sS'SQLField'
p166
S"<class 'pydal.objects.Field'>"
p167
sS'_f'
p168
S"'add'"
p169
sS'_c'
p170
S"'user'"
p171
sS'_a'
p172
S"'fmgqcx'"
p173
sS'BODY'
p174
S"<class 'gluon.html.BODY'>"
p175
sS'IS_DATE_IN_RANGE'
p176
S"<class 'gluon.validators.IS_DATE_IN_RANGE'>"
p177
sS'IFRAME'
p178
S"<class 'gluon.html.IFRAME'>"
p179
sS'ON'
p180
S'True'
p181
sS'URL'
p182
S'<function URL>'
p183
sS'__file__'
p184
S"'/Users/rocky/projects/web2py/applications/fmgqcx/views/user/add.html'"
p185
sS'db'
p186
S'<DAL uri="mysql:******@45.113.121.214/fmgqcp1v_gq">'
p187
sS'auth'
p188
S'<gluon.tools.Auth object>'
p189
sS'P'
S"<class 'gluon.html.P'>"
p190
sS'T'
S'<gluon.languages.translator object>'
p191
sS'XHTML'
p192
S"<class 'gluon.html.XHTML'>"
p193
sS'TD'
p194
S"<class 'gluon.html.TD'>"
p195
sS'regex_include'
p196
S'<_sre.SRE_Pattern object>'
p197
sS'TicketStorage'
p198
S"<class 'gluon.restricted.TicketStorage'>"
p199
sS'OL'
p200
S"<class 'gluon.html.OL'>"
p201
sS'TEXTAREA'
p202
S"<class 'gluon.html.TEXTAREA'>"
p203
sS'MENU'
p204
S"<class 'gluon.html.MENU'>"
p205
sS'STYLE'
p206
S"<class 'gluon.html.STYLE'>"
p207
sS'LINK'
p208
S"<class 'gluon.html.LINK'>"
p209
sS'EM'
p210
S"<class 'gluon.html.EM'>"
p211
sS'CODE'
p212
S"<class 'gluon.html.CODE'>"
p213
sS'HTTP'
p214
S"<class 'gluon.http.HTTP'>"
p215
sS'HR'
p216
S"<class 'gluon.html.HR'>"
p217
sS'IS_DATETIME'
p218
S"<class 'gluon.validators.IS_DATETIME'>"
p219
sS'stat'
p220
S"<module 'stat' from '/System/Library/Frameworks/...n.framework/Versions/2.7/lib/python2.7/stat.pyc'>"
p221
sS'LABEL'
p222
S"<class 'gluon.html.LABEL'>"
p223
sS'CLEANUP'
p224
S"<class 'gluon.validators.CLEANUP'>"
p225
sS'SELECT'
p226
S"<class 'gluon.html.SELECT'>"
p227
sS'regex_tables'
p228
S'<_sre.SRE_Pattern object>'
p229
sS'CENTER'
p230
S"<class 'gluon.html.CENTER'>"
p231
sS'prettydate'
p232
S'<function prettydate>'
p233
sg86
S'<function restricted>'
p234
sS'Crud'
p235
S"<class 'gluon.tools.Crud'>"
p236
sS'urllib'
p237
S"<module 'urllib' from '/System/Library/Framework...framework/Versions/2.7/lib/python2.7/urllib.pyc'>"
p238
sS're'
p239
S"<module 're' from '/System/Library/Frameworks/Python.framework/Versions/2.7/lib/python2.7/re.pyc'>"
p240
sS'regex_longcomments'
p241
S'<_sre.SRE_Pattern object>'
p242
sS'HTML'
p243
S"<class 'gluon.html.HTML'>"
p244
sS'SQLFORM'
p245
S"<class 'gluon.sqlhtml.SQLFORM'>"
p246
sS'difflib'
p247
S"<module 'difflib' from '/System/Library/Framewor...ramework/Versions/2.7/lib/python2.7/difflib.pyc'>"
p248
sS'tar_compiled'
p249
S'<function tar_compiled>'
p250
sS'LOAD'
p251
S'<function LOAD>'
p252
sS'PRE'
p253
S"<class 'gluon.html.PRE'>"
p254
sS'FIELDSET'
p255
S"<class 'gluon.html.FIELDSET'>"
p256
sS'IS_EQUAL_TO'
p257
S"<class 'gluon.validators.IS_EQUAL_TO'>"
p258
sS'embed64'
p259
S'<function embed64>'
p260
sS'IS_LIST_OF'
p261
S"<class 'gluon.validators.IS_LIST_OF'>"
p262
sS'INPUT'
p263
S"<class 'gluon.html.INPUT'>"
p264
sS'EMBED'
p265
S"<class 'gluon.html.EMBED'>"
p266
sS'cgi'
p267
S"<module 'cgi' from '/System/Library/Frameworks/Python.framework/Versions/2.7/lib/python2.7/cgi.pyc'>"
p268
sS'FORM'
p269
S"<class 'gluon.html.FORM'>"
p270
sS'socket'
p271
S"<module 'socket' from '/System/Library/Framework...framework/Versions/2.7/lib/python2.7/socket.pyc'>"
p272
sS'H2'
p273
S"<class 'gluon.html.H2'>"
p274
sS'H3'
p275
S"<class 'gluon.html.H3'>"
p276
sS'BUTTON'
p277
S"<class 'gluon.html.BUTTON'>"
p278
sS'H1'
p279
S"<class 'gluon.html.H1'>"
p280
sS'H6'
p281
S"<class 'gluon.html.H6'>"
p282
sS'H4'
p283
S"<class 'gluon.html.H4'>"
p284
sS'H5'
p285
S"<class 'gluon.html.H5'>"
p286
sS'UL'
p287
S"<class 'gluon.html.UL'>"
p288
sS'IS_UPPER'
p289
S"<class 'gluon.validators.IS_UPPER'>"
p290
sS'xmlescape'
p291
S'<function xmlescape>'
p292
sS'IS_TIME'
p293
S"<class 'gluon.validators.IS_TIME'>"
p294
sS'os'
p295
S"<module 'os' from '/System/Library/Frameworks/Python.framework/Versions/2.7/lib/python2.7/os.pyc'>"
p296
sS'compile_application'
p297
S'<function compile_application>'
p298
sS'RestrictedError'
p299
S"<class 'gluon.restricted.RestrictedError'>"
p300
sS'_t'
p301
S'None'
p302
sS'OPTION'
p303
S"<class 'gluon.html.OPTION'>"
p304
sS'TITLE'
p305
S"<class 'gluon.html.TITLE'>"
p306
sS'CRYPT'
p307
S"<class 'gluon.validators.CRYPT'>"
p308
sS'IS_EMPTY_OR'
p309
S"<class 'gluon.validators.IS_EMPTY_OR'>"
p310
sS'MARKMIN'
p311
S"<class 'gluon.html.MARKMIN'>"
p312
sS'Recaptcha2'
p313
S"<class 'gluon.tools.Recaptcha2'>"
p314
sS'sys'
p315
S"<module 'sys' (built-in)>"
p316
sS'__name__'
p317
S"'__restricted__'"
p318
sS'STRONG'
p319
S"<class 'gluon.html.STRONG'>"
p320
sS'COL'
p321
S"<class 'gluon.html.COL'>"
p322
sS'SCRIPT'
p323
S"<class 'gluon.html.SCRIPT'>"
p324
sS'have_mercurial'
p325
S'False'
p326
sS'geocode'
p327
S'<function geocode>'
p328
sS'findT'
p329
S'<function findT>'
p330
sS'TABLE'
p331
S"<class 'gluon.html.TABLE'>"
p332
sS'IS_IPV4'
p333
S"<class 'gluon.validators.IS_IPV4'>"
p334
sS'IS_LENGTH'
p335
S"<class 'gluon.validators.IS_LENGTH'>"
p336
sS'IS_IPV6'
p337
S"<class 'gluon.validators.IS_IPV6'>"
p338
sS'XML'
p339
S"<class 'gluon.html.XML'>"
p340
sS'Wiki'
p341
S"<class 'gluon.tools.Wiki'>"
p342
sS'B'
S"<class 'gluon.html.B'>"
p343
sS'IMG'
p344
S"<class 'gluon.html.IMG'>"
p345
sS'SQLTABLE'
p346
S"<class 'gluon.sqlhtml.SQLTABLE'>"
p347
sS'IS_MATCH'
p348
S"<class 'gluon.validators.IS_MATCH'>"
p349
sS'untar'
p350
S'<function untar>'
p351
sS'IS_ALPHANUMERIC'
p352
S"<class 'gluon.validators.IS_ALPHANUMERIC'>"
p353
sS'cleanpath'
p354
S'<function cleanpath>'
p355
sS'SPAN'
p356
S"<class 'gluon.html.SPAN'>"
p357
sS'IS_JSON'
p358
S"<class 'gluon.validators.IS_JSON'>"
p359
sS'IS_IPADDRESS'
p360
S"<class 'gluon.validators.IS_IPADDRESS'>"
p361
sS'dedent'
p362
S'<function dedent>'
p363
sS'IS_SLUG'
p364
S"<class 'gluon.validators.IS_SLUG'>"
p365
sS'BEAUTIFY'
p366
S"<class 'gluon.html.BEAUTIFY'>"
p367
sS'META'
p368
S"<class 'gluon.html.META'>"
p369
sS'md5_hash'
p370
S'<function md5_hash>'
p371
sS'fetch'
p372
S'<function fetch>'
p373
sS'update_all_languages'
p374
S'<function update_all_languages>'
p375
sS'IS_DATE'
p376
S"<class 'gluon.validators.IS_DATE'>"
p377
sS'IS_EMAIL'
p378
S"<class 'gluon.validators.IS_EMAIL'>"
p379
sS'tar'
p380
S'<function tar>'
p381
sS'up'
p382
S'<function up>'
p383
sS'IS_NOT_EMPTY'
p384
S"<class 'gluon.validators.IS_NOT_EMPTY'>"
p385
sg56
S"<Storage {'_vars': <Storage {}>, 'function': 'ad...ers/rocky/projects/web2py/applications/fmgqcx/'}>"
p386
sS'TBODY'
p387
S"<class 'gluon.html.TBODY'>"
p388
sS'CAT'
p389
S"<class 'gluon.html.CAT'>"
p390
sS'Field'
p391
S"<class 'pydal.objects.Field'>"
p392
sS'IS_LIST_OF_EMAILS'
p393
S"<class 'gluon.validators.IS_LIST_OF_EMAILS'>"
p394
sS'Mail'
p395
S"<class 'gluon.tools.Mail'>"
p396
sS'DIV'
p397
S"<class 'gluon.html.DIV'>"
p398
sS'shutil'
p399
S"<module 'shutil' from '/System/Library/Framework...framework/Versions/2.7/lib/python2.7/shutil.pyc'>"
p400
sS'LEGEND'
p401
S"<class 'gluon.html.LEGEND'>"
p402
sS'form'
p403
S'<gluon.sqlhtml.SQLFORM object>'
p404
sS'COLGROUP'
p405
S"<class 'gluon.html.COLGROUP'>"
p406
sS'DAL'
p407
S"<class 'pydal.base.DAL'>"
p408
sS'TT'
p409
S"<class 'gluon.html.TT'>"
p410
sS'TR'
p411
S"<class 'gluon.html.TR'>"
p412
sS'LI'
p413
S"<class 'gluon.html.LI'>"
p414
sS'listdir'
p415
S'<function listdir>'
p416
sS'TH'
p417
S"<class 'gluon.html.TH'>"
p418
sS'remove_compiled_application'
p419
S'<function remove_compiled_application>'
p420
sS'PluginManager'
p421
S"<class 'gluon.tools.PluginManager'>"
p422
sS'IS_URL'
p423
S"<class 'gluon.validators.IS_URL'>"
p424
sS'A'
S"<class 'gluon.html.A'>"
p425
sS'HEAD'
p426
S"<class 'gluon.html.HEAD'>"
p427
sS'IS_DATETIME_IN_RANGE'
p428
S"<class 'gluon.validators.IS_DATETIME_IN_RANGE'>"
p429
sS'IS_IMAGE'
p430
S"<class 'gluon.validators.IS_IMAGE'>"
p431
sS'I'
S"<class 'gluon.html.I'>"
p432
sS'__builtins__'
p433
S"{'ArithmeticError': <type 'exceptions.ArithmeticError'>, 'AssertionError': <type 'exceptions.AssertionError'>, 'AttributeError': <type 'exceptions.AttributeError'>, 'BaseException': <type 'exceptions.BaseException'>, 'BufferError': <type 'exceptions.BufferError'>, 'BytesWarning': <type 'exceptions.BytesWarning'>, 'DeprecationWarning': <type 'exceptions.DeprecationWarning'>, 'EOFError': <type 'exceptions.EOFError'>, 'Ellipsis': Ellipsis, 'EnvironmentError': <type 'exceptions.EnvironmentError'>, ...}"
p434
sS'_name'
p435
S"<lazyT 'Logout'>"
p436
sS'regex_expose'
p437
S'<_sre.SRE_Pattern object>'
p438
sS'IS_NOT_IN_DB'
p439
S"<class 'gluon.validators.IS_NOT_IN_DB'>"
p440
sg123
S"<Storage {'body': <cStringIO.StringO object at 0...ambda> at 0x10dc18cf8>, 'view': 'user/add.html'}>"
p441
sS'THEAD'
p442
S"<class 'gluon.html.THEAD'>"
p443
sS'ANY_OF'
p444
S"<class 'gluon.validators.ANY_OF'>"
p445
sS'IS_NULL_OR'
p446
S"<class 'gluon.validators.IS_EMPTY_OR'>"
p447
sS'fix_newlines'
p448
S'<function fix_newlines>'
p449
sS'TFOOT'
p450
S"<class 'gluon.html.TFOOT'>"
p451
sS'_active'
p452
g326
sS'IS_FLOAT_IN_RANGE'
p453
S"<class 'gluon.validators.IS_FLOAT_IN_RANGE'>"
p454
sS'IS_EXPR'
p455
S"<class 'gluon.validators.IS_EXPR'>"
p456
sS'IS_IN_SET'
p457
S"<class 'gluon.validators.IS_IN_SET'>"
p458
sS'IS_UPLOAD_FILENAME'
p459
S"<class 'gluon.validators.IS_UPLOAD_FILENAME'>"
p460
sS'time'
p461
S"<module 'time' from '/System/Library/Frameworks/.../Versions/2.7/lib/python2.7/lib-dynload/time.so'>"
p462
sS'regex_extend'
p463
S'<_sre.SRE_Pattern object>'
p464
sS'ASSIGNJS'
p465
S'<function ASSIGNJS>'
p466
sS'IS_DECIMAL_IN_RANGE'
p467
S"<class 'gluon.validators.IS_DECIMAL_IN_RANGE'>"
p468
sssS'traceback'
p469
S'Traceback (most recent call last):\n  File "/Users/rocky/projects/web2py/gluon/restricted.py", line 227, in restricted\n    exec ccode in environment\n  File "/Users/rocky/projects/web2py/applications/fmgqcx/views/user/add.html", line 56, in <module>\n    </select>\nNameError: name \'subject_list\' is not defined\n'
p470
s.